; Function Attrs: nofree norecurse nosync nounwind memory(argmem: readwrite) uwtable
define noundef ptr @lv_strncat(ptr noundef returned %0, ptr nocapture noundef readonly %1, i64 noundef %2) local_unnamed_addr #0 {
  br label %4

4:                                                ; preds = %4, %3
  %.0 = phi ptr [ %0, %3 ], [ %6, %4 ]
  %5 = load i8, ptr %.0, align 1, !tbaa !3
  %.not = icmp eq i8 %5, 0
  %6 = getelementptr inbounds nuw i8, ptr %.0, i64 1
  br i1 %.not, label %.preheader, label %4, !llvm.loop !25

.preheader:                                       ; preds = %4
  %.not1113 = icmp eq i64 %2, 0
  br i1 %.not1113, label %.critedge, label %.lr.ph

.lr.ph:                                           ; preds = %.preheader, %8
  %.116 = phi ptr [ %11, %8 ], [ %.0, %.preheader ]
  %.0915 = phi i64 [ %9, %8 ], [ %2, %.preheader ]
  %.01014 = phi ptr [ %10, %8 ], [ %1, %.preheader ]
  %7 = load i8, ptr %.01014, align 1, !tbaa !3
  %.not12 = icmp eq i8 %7, 0
  br i1 %.not12, label %.critedge, label %8

8:                                                ; preds = %.lr.ph
  %9 = add i64 %.0915, -1
  %10 = getelementptr inbounds nuw i8, ptr %.01014, i64 1
  %11 = getelementptr inbounds nuw i8, ptr %.116, i64 1
  store i8 %7, ptr %.116, align 1, !tbaa !3
  %.not11 = icmp eq i64 %9, 0
  br i1 %.not11, label %.critedge, label %.lr.ph, !llvm.loop !26

.critedge:                                        ; preds = %.lr.ph, %8, %.preheader
  %.1.lcssa = phi ptr [ %.0, %.preheader ], [ %11, %8 ], [ %.116, %.lr.ph ]
  store i8 0, ptr %.1.lcssa, align 1, !tbaa !3
  ret ptr %0
}